; Function Attrs: mustprogress nofree norecurse nosync nounwind willreturn memory(read, inaccessiblemem: none) uwtable
define zeroext i1 @H5F_is_tmp_addr(ptr noundef readonly captures(none) %0, i64 noundef %1) local_unnamed_addr #1 {
  %3 = getelementptr inbounds nuw i8, ptr %0, i64 16
  %4 = load ptr, ptr %3, align 8, !tbaa !31
  %5 = getelementptr inbounds nuw i8, ptr %4, i64 1544
  %6 = load i64, ptr %5, align 8, !tbaa !88
  %7 = icmp ne i64 %6, -1
  %8 = icmp ne i64 %1, -1
  %or.cond = and i1 %8, %7
  %9 = icmp ule i64 %6, %1
  %spec.select = and i1 %9, %or.cond
  ret i1 %spec.select
}